; Function Attrs: mustprogress nounwind uwtable
define dso_local noundef zeroext i1 @_ZN4node6crypto4ECDH14IsKeyPairValidEv(ptr nocapture noundef nonnull readonly align 8 dereferenceable(48) %this) local_unnamed_addr #3 align 2 {
entry:
  %call.i = tail call i32 @ERR_set_mark() #22
  %key_ = getelementptr inbounds i8, ptr %this, i64 32
  %0 = load ptr, ptr %key_, align 8
  %call2 = tail call i32 @EC_KEY_check_key(ptr noundef %0) #22
  %cmp = icmp eq i32 %call2, 1
  %call.i1 = tail call i32 @ERR_pop_to_mark() #22
  ret i1 %cmp
}